EXPORTS
    _ZN2LM11create_exprENS_8ValuePtrENS_9TypeIndexE @1
    _ZN2LM11type_systemE @2 DATA
    _ZN2LM13demangle_nameESs @3
    _ZN2LM14empty_arg_listE @4 DATA
    _ZN2LM16create_referenceENS_8ValuePtrENS_9TypeIndexEN5boost13intrusive_ptrINS_4ExprEEE @5
    _ZN2LM18create_type_mirrorESsjNS_9TypeIndexE @6
    _ZN2LM18create_type_systemEv @7
    _ZN2LM18register_namespaceESsRNS_10TypeMirrorE @8
    _ZN2LM20create_cpp_type_infoEPKSt9type_infobb @9
    _ZN2LM21create_cpp_type_indexEPKSt9type_infobb @10
    _ZN2LM21intrusive_ptr_add_refEPKNS_21AbstractTypeConverterE @11
    _ZN2LM21intrusive_ptr_add_refEPNS_4ExprE @12
    _ZN2LM21intrusive_ptr_releaseEPKNS_21AbstractTypeConverterE @13
    _ZN2LM21intrusive_ptr_releaseEPNS_4ExprE @14
    _ZN2LM23create_constructor_nameESsSs @15
    _ZN2LM24type_info_cache_instanceE @16 DATA
    _ZN2LM26create_namespace_type_infoESs @17
    _ZN2LM27create_bottom_ptr_type_infoEv @18
    _ZN2LM27create_namespace_type_indexESs @19
    _ZN2LM28create_bottom_ptr_type_indexEv @20
    _ZN2LM8get_infoERKNS_9TypeIndexE @21
    _ZN2LM9get_indexESt10shared_ptrIKNS_16AbstractTypeInfoEE @22
